; ModuleID = 'source-C-CXX/29/472.cpp'
source_filename = "source-C-CXX/29/472.cpp"
target datalayout = "e-m:e-p270:32:32-p271:32:32-p272:64:64-i64:64-f80:128-n8:16:32:64-S128"
target triple = "x86_64-pc-linux-gnu"

%"class.std::ios_base::Init" = type { i8 }
%"class.std::basic_istream" = type { i32 (...)**, i64, %"class.std::basic_ios" }
%"class.std::basic_ios" = type { %"class.std::ios_base", %"class.std::basic_ostream"*, i8, i8, %"class.std::basic_streambuf"*, %"class.std::ctype"*, %"class.std::num_put"*, %"class.std::num_get"* }
%"class.std::ios_base" = type { i32 (...)**, i64, i64, i32, i32, i32, %"struct.std::ios_base::_Callback_list"*, %"struct.std::ios_base::_Words", [8 x %"struct.std::ios_base::_Words"], i32, %"struct.std::ios_base::_Words"*, %"class.std::locale" }
%"struct.std::ios_base::_Callback_list" = type { %"struct.std::ios_base::_Callback_list"*, void (i32, %"class.std::ios_base"*, i32)*, i32, i32 }
%"struct.std::ios_base::_Words" = type { i8*, i64 }
%"class.std::locale" = type { %"class.std::locale::_Impl"* }
%"class.std::locale::_Impl" = type { i32, %"class.std::locale::facet"**, i64, %"class.std::locale::facet"**, i8** }
%"class.std::locale::facet" = type <{ i32 (...)**, i32, [4 x i8] }>
%"class.std::basic_ostream" = type { i32 (...)**, %"class.std::basic_ios" }
%"class.std::basic_streambuf" = type { i32 (...)**, i8*, i8*, i8*, i8*, i8*, i8*, %"class.std::locale" }
%"class.std::ctype" = type <{ %"class.std::locale::facet.base", [4 x i8], %struct.__locale_struct*, i8, [7 x i8], i32*, i32*, i16*, i8, [256 x i8], [256 x i8], i8, [6 x i8] }>
%"class.std::locale::facet.base" = type <{ i32 (...)**, i32 }>
%struct.__locale_struct = type { [13 x %struct.__locale_data*], i16*, i32*, i32*, [13 x i8*] }
%struct.__locale_data = type opaque
%"class.std::num_put" = type { %"class.std::locale::facet.base", [4 x i8] }
%"class.std::num_get" = type { %"class.std::locale::facet.base", [4 x i8] }

@_ZStL8__ioinit = internal global %"class.std::ios_base::Init" zeroinitializer, align 1
@__dso_handle = external hidden global i8
@_ZSt3cin = external global %"class.std::basic_istream", align 8
@_ZSt4cout = external global %"class.std::basic_ostream", align 8
@llvm.global_ctors = appending global [1 x { i32, void ()*, i8* }] [{ i32, void ()*, i8* } { i32 65535, void ()* @_GLOBAL__sub_I_472.cpp, i8* null }]

declare void @_ZNSt8ios_base4InitC1Ev(%"class.std::ios_base::Init"* nonnull align 1 dereferenceable(1)) unnamed_addr #0

; Function Attrs: nounwind
declare void @_ZNSt8ios_base4InitD1Ev(%"class.std::ios_base::Init"* nonnull align 1 dereferenceable(1)) unnamed_addr #1

; Function Attrs: nofree nounwind
declare i32 @__cxa_atexit(void (i8*)*, i8*, i8*) local_unnamed_addr #2

; Function Attrs: mustprogress norecurse sspstrong uwtable
define dso_local i32 @main() local_unnamed_addr #3 {
  %1 = alloca i32, align 4
  %2 = bitcast i32* %1 to i8*
  call void @llvm.lifetime.start.p0i8(i64 4, i8* nonnull %2) #8
  store i32 0, i32* %1, align 4, !tbaa !5
  %3 = call nonnull align 8 dereferenceable(16) %"class.std::basic_istream"* @_ZNSirsERi(%"class.std::basic_istream"* nonnull align 8 dereferenceable(16) @_ZSt3cin, i32* nonnull align 4 dereferenceable(4) %1)
  %4 = load i32, i32* %1, align 4, !tbaa !5
  %5 = icmp slt i32 %4, 1
  br i1 %5, label %78, label %6

6:                                                ; preds = %0
  %7 = icmp ult i32 %4, 8
  br i1 %7, label %56, label %8

8:                                                ; preds = %6
  %9 = and i32 %4, -8
  %10 = or i32 %9, 1
  br label %11

11:                                               ; preds = %11, %8
  %12 = phi i32 [ 0, %8 ], [ %49, %11 ]
  %13 = phi <4 x i32> [ zeroinitializer, %8 ], [ %45, %11 ]
  %14 = phi <4 x i32> [ zeroinitializer, %8 ], [ %48, %11 ]
  %15 = phi <4 x i32> [ <i32 1, i32 2, i32 3, i32 4>, %8 ], [ %50, %11 ]
  %16 = add <4 x i32> %15, <i32 4, i32 4, i32 4, i32 4>
  %17 = freeze <4 x i32> %15
  %18 = udiv <4 x i32> %17, <i32 10, i32 10, i32 10, i32 10>
  %19 = mul <4 x i32> %18, <i32 10, i32 10, i32 10, i32 10>
  %20 = sub <4 x i32> %17, %19
  %21 = freeze <4 x i32> %16
  %22 = udiv <4 x i32> %21, <i32 10, i32 10, i32 10, i32 10>
  %23 = mul <4 x i32> %22, <i32 10, i32 10, i32 10, i32 10>
  %24 = sub <4 x i32> %21, %23
  %25 = icmp eq <4 x i32> %20, <i32 7, i32 7, i32 7, i32 7>
  %26 = icmp eq <4 x i32> %24, <i32 7, i32 7, i32 7, i32 7>
  %27 = urem <4 x i32> %18, <i32 10, i32 10, i32 10, i32 10>
  %28 = urem <4 x i32> %22, <i32 10, i32 10, i32 10, i32 10>
  %29 = icmp eq <4 x i32> %27, <i32 7, i32 7, i32 7, i32 7>
  %30 = icmp eq <4 x i32> %28, <i32 7, i32 7, i32 7, i32 7>
  %31 = urem <4 x i32> %15, <i32 7, i32 7, i32 7, i32 7>
  %32 = urem <4 x i32> %16, <i32 7, i32 7, i32 7, i32 7>
  %33 = icmp eq <4 x i32> %31, zeroinitializer
  %34 = icmp eq <4 x i32> %32, zeroinitializer
  %35 = select <4 x i1> %29, <4 x i1> <i1 true, i1 true, i1 true, i1 true>, <4 x i1> %33
  %36 = select <4 x i1> %30, <4 x i1> <i1 true, i1 true, i1 true, i1 true>, <4 x i1> %34
  %37 = mul nsw <4 x i32> %15, %15
  %38 = mul nsw <4 x i32> %16, %16
  %39 = xor <4 x i1> %25, <i1 true, i1 true, i1 true, i1 true>
  %40 = xor <4 x i1> %26, <i1 true, i1 true, i1 true, i1 true>
  %41 = select <4 x i1> %39, <4 x i1> %35, <4 x i1> zeroinitializer
  %42 = select <4 x i1> %40, <4 x i1> %36, <4 x i1> zeroinitializer
  %43 = select <4 x i1> %25, <4 x i1> <i1 true, i1 true, i1 true, i1 true>, <4 x i1> %41
  %44 = select <4 x i1> %43, <4 x i32> zeroinitializer, <4 x i32> %37
  %45 = add <4 x i32> %13, %44
  %46 = select <4 x i1> %26, <4 x i1> <i1 true, i1 true, i1 true, i1 true>, <4 x i1> %42
  %47 = select <4 x i1> %46, <4 x i32> zeroinitializer, <4 x i32> %38
  %48 = add <4 x i32> %14, %47
  %49 = add nuw i32 %12, 8
  %50 = add <4 x i32> %15, <i32 8, i32 8, i32 8, i32 8>
  %51 = icmp eq i32 %49, %9
  br i1 %51, label %52, label %11, !llvm.loop !9

52:                                               ; preds = %11
  %53 = add <4 x i32> %48, %45
  %54 = call i32 @llvm.vector.reduce.add.v4i32(<4 x i32> %53)
  %55 = icmp eq i32 %4, %9
  br i1 %55, label %78, label %56

56:                                               ; preds = %6, %52
  %57 = phi i32 [ 0, %6 ], [ %54, %52 ]
  %58 = phi i32 [ 1, %6 ], [ %10, %52 ]
  br label %59

59:                                               ; preds = %56, %74
  %60 = phi i32 [ %75, %74 ], [ %57, %56 ]
  %61 = phi i32 [ %76, %74 ], [ %58, %56 ]
  %62 = urem i32 %61, 10
  %63 = udiv i32 %61, 10
  %64 = icmp eq i32 %62, 7
  br i1 %64, label %74, label %65

65:                                               ; preds = %59
  %66 = urem i32 %63, 10
  %67 = icmp eq i32 %66, 7
  %68 = urem i32 %61, 7
  %69 = icmp eq i32 %68, 0
  %70 = select i1 %67, i1 true, i1 %69
  br i1 %70, label %74, label %71

71:                                               ; preds = %65
  %72 = mul nsw i32 %61, %61
  %73 = add nsw i32 %60, %72
  br label %74

74:                                               ; preds = %59, %65, %71
  %75 = phi i32 [ %73, %71 ], [ %60, %65 ], [ %60, %59 ]
  %76 = add nuw i32 %61, 1
  %77 = icmp eq i32 %61, %4
  br i1 %77, label %78, label %59, !llvm.loop !12

78:                                               ; preds = %74, %52, %0
  %79 = phi i32 [ 0, %0 ], [ %54, %52 ], [ %75, %74 ]
  %80 = call nonnull align 8 dereferenceable(8) %"class.std::basic_ostream"* @_ZNSolsEi(%"class.std::basic_ostream"* nonnull align 8 dereferenceable(8) @_ZSt4cout, i32 %79)
  %81 = bitcast %"class.std::basic_ostream"* %80 to i8**
  %82 = load i8*, i8** %81, align 8, !tbaa !14
  %83 = getelementptr i8, i8* %82, i64 -24
  %84 = bitcast i8* %83 to i64*
  %85 = load i64, i64* %84, align 8
  %86 = bitcast %"class.std::basic_ostream"* %80 to i8*
  %87 = add nsw i64 %85, 240
  %88 = getelementptr inbounds i8, i8* %86, i64 %87
  %89 = bitcast i8* %88 to %"class.std::ctype"**
  %90 = load %"class.std::ctype"*, %"class.std::ctype"** %89, align 8, !tbaa !16
  %91 = icmp eq %"class.std::ctype"* %90, null
  br i1 %91, label %92, label %93

92:                                               ; preds = %78
  call void @_ZSt16__throw_bad_castv() #9
  unreachable

93:                                               ; preds = %78
  %94 = getelementptr inbounds %"class.std::ctype", %"class.std::ctype"* %90, i64 0, i32 8
  %95 = load i8, i8* %94, align 8, !tbaa !20
  %96 = icmp eq i8 %95, 0
  br i1 %96, label %100, label %97

97:                                               ; preds = %93
  %98 = getelementptr inbounds %"class.std::ctype", %"class.std::ctype"* %90, i64 0, i32 9, i64 10
  %99 = load i8, i8* %98, align 1, !tbaa !22
  br label %106

100:                                              ; preds = %93
  call void @_ZNKSt5ctypeIcE13_M_widen_initEv(%"class.std::ctype"* nonnull align 8 dereferenceable(570) %90)
  %101 = bitcast %"class.std::ctype"* %90 to i8 (%"class.std::ctype"*, i8)***
  %102 = load i8 (%"class.std::ctype"*, i8)**, i8 (%"class.std::ctype"*, i8)*** %101, align 8, !tbaa !14
  %103 = getelementptr inbounds i8 (%"class.std::ctype"*, i8)*, i8 (%"class.std::ctype"*, i8)** %102, i64 6
  %104 = load i8 (%"class.std::ctype"*, i8)*, i8 (%"class.std::ctype"*, i8)** %103, align 8
  %105 = call signext i8 %104(%"class.std::ctype"* nonnull align 8 dereferenceable(570) %90, i8 signext 10)
  br label %106

106:                                              ; preds = %97, %100
  %107 = phi i8 [ %99, %97 ], [ %105, %100 ]
  %108 = call nonnull align 8 dereferenceable(8) %"class.std::basic_ostream"* @_ZNSo3putEc(%"class.std::basic_ostream"* nonnull align 8 dereferenceable(8) %80, i8 signext %107)
  %109 = call nonnull align 8 dereferenceable(8) %"class.std::basic_ostream"* @_ZNSo5flushEv(%"class.std::basic_ostream"* nonnull align 8 dereferenceable(8) %108)
  call void @llvm.lifetime.end.p0i8(i64 4, i8* nonnull %2) #8
  ret i32 0
}

; Function Attrs: argmemonly mustprogress nofree nosync nounwind willreturn
declare void @llvm.lifetime.start.p0i8(i64 immarg, i8* nocapture) #4

declare nonnull align 8 dereferenceable(16) %"class.std::basic_istream"* @_ZNSirsERi(%"class.std::basic_istream"* nonnull align 8 dereferenceable(16), i32* nonnull align 4 dereferenceable(4)) local_unnamed_addr #0

declare nonnull align 8 dereferenceable(8) %"class.std::basic_ostream"* @_ZNSolsEi(%"class.std::basic_ostream"* nonnull align 8 dereferenceable(8), i32) local_unnamed_addr #0

; Function Attrs: argmemonly mustprogress nofree nosync nounwind willreturn
declare void @llvm.lifetime.end.p0i8(i64 immarg, i8* nocapture) #4

declare nonnull align 8 dereferenceable(8) %"class.std::basic_ostream"* @_ZNSo3putEc(%"class.std::basic_ostream"* nonnull align 8 dereferenceable(8), i8 signext) local_unnamed_addr #0

declare nonnull align 8 dereferenceable(8) %"class.std::basic_ostream"* @_ZNSo5flushEv(%"class.std::basic_ostream"* nonnull align 8 dereferenceable(8)) local_unnamed_addr #0

; Function Attrs: noreturn
declare void @_ZSt16__throw_bad_castv() local_unnamed_addr #5

declare void @_ZNKSt5ctypeIcE13_M_widen_initEv(%"class.std::ctype"* nonnull align 8 dereferenceable(570)) local_unnamed_addr #0

; Function Attrs: sspstrong uwtable
define internal void @_GLOBAL__sub_I_472.cpp() #6 section ".text.startup" {
  tail call void @_ZNSt8ios_base4InitC1Ev(%"class.std::ios_base::Init"* nonnull align 1 dereferenceable(1) @_ZStL8__ioinit)
  %1 = tail call i32 @__cxa_atexit(void (i8*)* bitcast (void (%"class.std::ios_base::Init"*)* @_ZNSt8ios_base4InitD1Ev to void (i8*)*), i8* getelementptr inbounds (%"class.std::ios_base::Init", %"class.std::ios_base::Init"* @_ZStL8__ioinit, i64 0, i32 0), i8* nonnull @__dso_handle) #8
  ret void
}

; Function Attrs: nofree nosync nounwind readnone willreturn
declare i32 @llvm.vector.reduce.add.v4i32(<4 x i32>) #7


!llvm.module.flags = !{!0, !1, !2, !3}
!llvm.ident = !{!4}

!0 = !{i32 1, !"wchar_size", i32 4}
!1 = !{i32 7, !"PIC Level", i32 2}
!2 = !{i32 7, !"PIE Level", i32 2}
!3 = !{i32 7, !"uwtable", i32 1}
!4 = !{!"clang version 13.0.0"}
!5 = !{!6, !6, i64 0}
!6 = !{!"int", !7, i64 0}
!7 = !{!"omnipotent char", !8, i64 0}
!8 = !{!"Simple C++ TBAA"}
!9 = distinct !{!9, !10, !11}
!10 = !{!"llvm.loop.mustprogress"}
!11 = !{!"llvm.loop.isvectorized", i32 1}
!12 = distinct !{!12, !10, !13, !11}
!13 = !{!"llvm.loop.unroll.runtime.disable"}
!14 = !{!15, !15, i64 0}
!15 = !{!"vtable pointer", !8, i64 0}
!16 = !{!17, !18, i64 240}
!17 = !{!"_ZTSSt9basic_iosIcSt11char_traitsIcEE", !18, i64 216, !7, i64 224, !19, i64 225, !18, i64 232, !18, i64 240, !18, i64 248, !18, i64 256}
!18 = !{!"any pointer", !7, i64 0}
!19 = !{!"bool", !7, i64 0}
!20 = !{!21, !7, i64 56}
!21 = !{!"_ZTSSt5ctypeIcE", !18, i64 16, !19, i64 24, !18, i64 32, !18, i64 40, !18, i64 48, !7, i64 56, !7, i64 57, !7, i64 313, !7, i64 569}
!22 = !{!7, !7, i64 0}
